; Function Attrs: nofree norecurse nosync nounwind memory(argmem: readwrite) uwtable
define hidden void @aom_smooth_predictor_16x64_c(ptr nocapture noundef writeonly %0, i64 noundef %1, ptr nocapture noundef readonly %2, ptr nocapture noundef readonly %3) local_unnamed_addr #0 {
  %5 = alloca [4 x i8], align 1
  %6 = alloca [4 x i8], align 1
  call void @llvm.lifetime.start.p0(i64 4, ptr nonnull %5)
  call void @llvm.lifetime.start.p0(i64 4, ptr nonnull %6)
  %7 = getelementptr i8, ptr %3, i64 63
  %8 = load i8, ptr %7, align 1
  %9 = getelementptr i8, ptr %2, i64 15
  %10 = load i8, ptr %9, align 1
  %11 = getelementptr inbounds i8, ptr %5, i64 1
  %12 = getelementptr inbounds i8, ptr %5, i64 2
  %13 = getelementptr inbounds i8, ptr %5, i64 3
  %14 = getelementptr inbounds i8, ptr %6, i64 1
  %15 = getelementptr inbounds i8, ptr %6, i64 2
  %16 = getelementptr inbounds i8, ptr %6, i64 3
  br label %.preheader.us.i

.preheader.us.i:                                  ; preds = %._crit_edge.us.i, %4
  %indvars.iv51.i = phi i64 [ %indvars.iv.next52.i, %._crit_edge.us.i ], [ 0, %4 ]
  %.03842.us.i = phi ptr [ %42, %._crit_edge.us.i ], [ %0, %4 ]
  %17 = getelementptr inbounds i8, ptr %3, i64 %indvars.iv51.i
  %18 = getelementptr inbounds i8, ptr getelementptr inbounds (i8, ptr @sm_weight_arrays, i64 64), i64 %indvars.iv51.i
  %19 = load i8, ptr %18, align 1
  %20 = sub i8 0, %19
  br label %21

21:                                               ; preds = %28, %.preheader.us.i
  %indvars.iv47.i = phi i64 [ 0, %.preheader.us.i ], [ %indvars.iv.next48.i, %28 ]
  %22 = getelementptr inbounds i8, ptr %2, i64 %indvars.iv47.i
  %23 = load i8, ptr %22, align 1
  store i8 %23, ptr %5, align 1
  store i8 %8, ptr %11, align 1
  %24 = load i8, ptr %17, align 1
  store i8 %24, ptr %12, align 1
  store i8 %10, ptr %13, align 1
  store i8 %19, ptr %6, align 1
  store i8 %20, ptr %14, align 1
  %25 = getelementptr inbounds i8, ptr getelementptr inbounds (i8, ptr @sm_weight_arrays, i64 16), i64 %indvars.iv47.i
  %26 = load i8, ptr %25, align 1
  store i8 %26, ptr %15, align 1
  %27 = sub i8 0, %26
  store i8 %27, ptr %16, align 1
  br label %33

28:                                               ; preds = %33
  %29 = add i32 %41, 256
  %30 = lshr i32 %29, 9
  %31 = trunc i32 %30 to i8
  %32 = getelementptr inbounds i8, ptr %.03842.us.i, i64 %indvars.iv47.i
  store i8 %31, ptr %32, align 1
  %indvars.iv.next48.i = add nuw nsw i64 %indvars.iv47.i, 1
  %exitcond50.not.i = icmp eq i64 %indvars.iv.next48.i, 16
  br i1 %exitcond50.not.i, label %._crit_edge.us.i, label %21, !llvm.loop !15

33:                                               ; preds = %33, %21
  %indvars.iv.i = phi i64 [ %indvars.iv.next.i, %33 ], [ 0, %21 ]
  %.03539.us.i = phi i32 [ %41, %33 ], [ 0, %21 ]
  %34 = getelementptr inbounds [4 x i8], ptr %6, i64 0, i64 %indvars.iv.i
  %35 = load i8, ptr %34, align 1
  %36 = zext i8 %35 to i32
  %37 = getelementptr inbounds [4 x i8], ptr %5, i64 0, i64 %indvars.iv.i
  %38 = load i8, ptr %37, align 1
  %39 = zext i8 %38 to i32
  %40 = mul nuw nsw i32 %39, %36
  %41 = add i32 %40, %.03539.us.i
  %indvars.iv.next.i = add nuw nsw i64 %indvars.iv.i, 1
  %exitcond.not.i = icmp eq i64 %indvars.iv.next.i, 4
  br i1 %exitcond.not.i, label %28, label %33, !llvm.loop !16

._crit_edge.us.i:                                 ; preds = %28
  %42 = getelementptr inbounds i8, ptr %.03842.us.i, i64 %1
  %indvars.iv.next52.i = add nuw nsw i64 %indvars.iv51.i, 1
  %exitcond55.not.i = icmp eq i64 %indvars.iv.next52.i, 64
  br i1 %exitcond55.not.i, label %smooth_predictor.exit, label %.preheader.us.i, !llvm.loop !17

smooth_predictor.exit:                            ; preds = %._crit_edge.us.i
  call void @llvm.lifetime.end.p0(i64 4, ptr nonnull %5)
  call void @llvm.lifetime.end.p0(i64 4, ptr nonnull %6)
  ret void
}